target datalayout = "e-m:e-p270:32:32-p271:32:32-p272:64:64-i64:64-i128:128-f80:128-n8:16:32:64-S128"
target triple = "x86_64-unknown-linux-gnu"

%"class.sat::literal" = type { i32 }
%"class.arith::sls" = type <{ %"class.sat::local_search_plugin", ptr, ptr, ptr, %"struct.arith::sls::stats", [4 x i8], %"struct.arith::sls::config", %class.scoped_ptr_vector, %class.vector.0, %class.svector, i8, [7 x i8] }>
%"class.sat::local_search_plugin" = type { ptr }
%"struct.arith::sls::stats" = type { i32 }
%"struct.arith::sls::config" = type { double, i32, i32, i32, double }
%class.scoped_ptr_vector = type { %class.ptr_vector }
%class.ptr_vector = type { %class.vector }
%class.vector = type { ptr }
%class.vector.0 = type { ptr }
%class.svector = type { %class.vector.1 }
%class.vector.1 = type { ptr }
%"class.sat::ddfw" = type { %"class.sat::i_local_search", %"struct.sat::ddfw::config", %class.reslimit, %"class.sat::clause_allocator", %class.svector.103, %class.svector.15, %class.svector.105, %class.svector.107, %class.svector.107, %class.svector.109, i32, %class.vector.111, %class.svector.6, %class.svector.6, %class.indexed_uint_set, %class.indexed_uint_set, %class.random_gen, i32, i32, i32, i32, i64, i64, i64, i64, i64, i64, i32, i32, %class.u_map.38, %class.stopwatch, ptr, ptr }
%"class.sat::i_local_search" = type { ptr }
%"struct.sat::ddfw::config" = type { i32, i32, i32, i32, i32, i32, double }
%class.reslimit = type { %"struct.std::atomic", i8, i64, i64, %class.svector.69, %class.ptr_vector.71 }
%"struct.std::atomic" = type { %"struct.std::__atomic_base" }
%"struct.std::__atomic_base" = type { i32 }
%class.svector.69 = type { %class.vector.70 }
%class.vector.70 = type { ptr }
%class.ptr_vector.71 = type { %class.vector.72 }
%class.vector.72 = type { ptr }
%"class.sat::clause_allocator" = type { %class.sat_allocator, %class.id_gen }
%class.sat_allocator = type { ptr, i64, %class.ptr_vector.99, ptr, [65 x %class.ptr_vector.101] }
%class.ptr_vector.99 = type { %class.vector.100 }
%class.vector.100 = type { ptr }
%class.ptr_vector.101 = type { %class.vector.102 }
%class.vector.102 = type { ptr }
%class.id_gen = type { i32, %class.svector.6 }
%class.svector.103 = type { %class.vector.104 }
%class.vector.104 = type { ptr }
%class.svector.15 = type { %class.vector.16 }
%class.vector.16 = type { ptr }
%class.svector.105 = type { %class.vector.106 }
%class.vector.106 = type { ptr }
%class.svector.107 = type { %class.vector.108 }
%class.vector.108 = type { ptr }
%class.svector.109 = type { %class.vector.110 }
%class.vector.110 = type { ptr }
%class.vector.111 = type { ptr }
%class.svector.6 = type { %class.vector.7 }
%class.vector.7 = type { ptr }
%class.indexed_uint_set = type { i32, %class.svector.6, %class.svector.6 }
%class.random_gen = type { i32 }
%class.u_map.38 = type { %class.map.39 }
%class.map.39 = type { %class.table2map.40 }
%class.table2map.40 = type { %class.core_hashtable.41 }
%class.core_hashtable.41 = type <{ ptr, i32, i32, i32, [4 x i8] }>
%class.stopwatch = type <{ %"class.std::chrono::time_point", %"class.std::chrono::duration", i8, [7 x i8] }>
%"class.std::chrono::time_point" = type { %"class.std::chrono::duration" }
%"class.std::chrono::duration" = type { i64 }
%"struct.sat::ddfw::clause_info" = type { double, i32, i32, ptr }
%"class.sat::clause" = type { i32, i32, i32, %class.approx_set_tpl, i32, [0 x %"class.sat::literal"] }
%class.approx_set_tpl = type { i32 }

; Function Attrs: mustprogress nounwind uwtable
define linkonce_odr hidden noundef nonnull align 8 dereferenceable(24) ptr @_ZN6vectorIN3sat4ddfw11clause_infoELb0EjEixEj(ptr noundef nonnull align 8 dereferenceable(8) %this, i32 noundef %idx) #4 comdat align 2 {
entry:
  %this.addr = alloca ptr, align 8
  %idx.addr = alloca i32, align 4
  store ptr %this, ptr %this.addr, align 8
  store i32 %idx, ptr %idx.addr, align 4
  %this1 = load ptr, ptr %this.addr, align 8
  %m_data = getelementptr inbounds %class.vector.104, ptr %this1, i32 0, i32 0
  %0 = load ptr, ptr %m_data, align 8
  %1 = load i32, ptr %idx.addr, align 4
  %idxprom = zext i32 %1 to i64
  %arrayidx = getelementptr inbounds %"struct.sat::ddfw::clause_info", ptr %0, i64 %idxprom
  ret ptr %arrayidx
}

; Function Attrs: mustprogress nounwind uwtable
define linkonce_odr hidden noundef nonnull align 8 dereferenceable(8) ptr @_ZNK6vectorIPN5arith3sls4ineqELb0EjEixEj(ptr noundef nonnull align 8 dereferenceable(8) %this, i32 noundef %idx) #4 comdat align 2 {
entry:
  %this.addr = alloca ptr, align 8
  %idx.addr = alloca i32, align 4
  store ptr %this, ptr %this.addr, align 8
  store i32 %idx, ptr %idx.addr, align 4
  %this1 = load ptr, ptr %this.addr, align 8
  %m_data = getelementptr inbounds %class.vector, ptr %this1, i32 0, i32 0
  %0 = load ptr, ptr %m_data, align 8
  %1 = load i32, ptr %idx.addr, align 4
  %idxprom = zext i32 %1 to i64
  %arrayidx = getelementptr inbounds ptr, ptr %0, i64 %idxprom
  ret ptr %arrayidx
}

; Function Attrs: mustprogress uwtable
define linkonce_odr hidden noundef nonnull align 8 dereferenceable(24) ptr @_ZN3sat4ddfw15get_clause_infoEj(ptr noundef nonnull align 8 dereferenceable(920) %this, i32 noundef %idx) #5 comdat align 2 {
entry:
  %this.addr = alloca ptr, align 8
  %idx.addr = alloca i32, align 4
  store ptr %this, ptr %this.addr, align 8
  store i32 %idx, ptr %idx.addr, align 4
  %this1 = load ptr, ptr %this.addr, align 8
  %m_clauses = getelementptr inbounds %"class.sat::ddfw", ptr %this1, i32 0, i32 4
  %0 = load i32, ptr %idx.addr, align 4
  %call = call noundef nonnull align 8 dereferenceable(24) ptr @_ZN6vectorIN3sat4ddfw11clause_infoELb0EjEixEj(ptr noundef nonnull align 8 dereferenceable(8) %m_clauses, i32 noundef %0)
  ret ptr %call
}

; Function Attrs: mustprogress uwtable
define linkonce_odr hidden noundef ptr @_ZNK17scoped_ptr_vectorIN5arith3sls4ineqEEixEj(ptr noundef nonnull align 8 dereferenceable(8) %this, i32 noundef %idx) #5 comdat align 2 {
entry:
  %this.addr = alloca ptr, align 8
  %idx.addr = alloca i32, align 4
  store ptr %this, ptr %this.addr, align 8
  store i32 %idx, ptr %idx.addr, align 4
  %this1 = load ptr, ptr %this.addr, align 8
  %m_vector = getelementptr inbounds %class.scoped_ptr_vector, ptr %this1, i32 0, i32 0
  %0 = load i32, ptr %idx.addr, align 4
  %call = call noundef nonnull align 8 dereferenceable(8) ptr @_ZNK6vectorIPN5arith3sls4ineqELb0EjEixEj(ptr noundef nonnull align 8 dereferenceable(8) %m_vector, i32 noundef %0)
  %1 = load ptr, ptr %call, align 8
  ret ptr %1
}

; Function Attrs: mustprogress uwtable
define linkonce_odr hidden noundef nonnull align 8 dereferenceable(24) ptr @_ZNK5arith3sls15get_clause_infoEj(ptr noundef nonnull align 8 dereferenceable(97) %this, i32 noundef %idx) #5 comdat align 2 {
entry:
  %this.addr = alloca ptr, align 8
  %idx.addr = alloca i32, align 4
  store ptr %this, ptr %this.addr, align 8
  store i32 %idx, ptr %idx.addr, align 4
  %this1 = load ptr, ptr %this.addr, align 8
  %m_bool_search = getelementptr inbounds %"class.arith::sls", ptr %this1, i32 0, i32 3
  %0 = load ptr, ptr %m_bool_search, align 8
  %1 = load i32, ptr %idx.addr, align 4
  %call = call noundef nonnull align 8 dereferenceable(24) ptr @_ZN3sat4ddfw15get_clause_infoEj(ptr noundef nonnull align 8 dereferenceable(920) %0, i32 noundef %1)
  ret ptr %call
}

; Function Attrs: mustprogress nounwind uwtable
define linkonce_odr noundef nonnull align 8 dereferenceable(8) ptr @_ZSt3minIlERKT_S2_S2_(ptr noundef nonnull align 8 dereferenceable(8) %__a, ptr noundef nonnull align 8 dereferenceable(8) %__b) #4 comdat {
entry:
  %retval = alloca ptr, align 8
  %__a.addr = alloca ptr, align 8
  %__b.addr = alloca ptr, align 8
  store ptr %__a, ptr %__a.addr, align 8
  store ptr %__b, ptr %__b.addr, align 8
  %0 = load ptr, ptr %__b.addr, align 8
  %1 = load i64, ptr %0, align 8
  %2 = load ptr, ptr %__a.addr, align 8
  %3 = load i64, ptr %2, align 8
  %cmp = icmp slt i64 %1, %3
  br i1 %cmp, label %if.then, label %if.end

if.then:                                          ; preds = %entry
  %4 = load ptr, ptr %__b.addr, align 8
  store ptr %4, ptr %retval, align 8
  br label %return

if.end:                                           ; preds = %entry
  %5 = load ptr, ptr %__a.addr, align 8
  store ptr %5, ptr %retval, align 8
  br label %return

return:                                           ; preds = %if.end, %if.then
  %6 = load ptr, ptr %retval, align 8
  ret ptr %6
}

; Function Attrs: mustprogress nounwind uwtable
define linkonce_odr hidden noundef zeroext i1 @_ZNK3sat7literal4signEv(ptr noundef nonnull align 4 dereferenceable(4) %this) #4 comdat align 2 {
entry:
  %this.addr = alloca ptr, align 8
  store ptr %this, ptr %this.addr, align 8
  %this1 = load ptr, ptr %this.addr, align 8
  %m_val = getelementptr inbounds %"class.sat::literal", ptr %this1, i32 0, i32 0
  %0 = load i32, ptr %m_val, align 4
  %conv = zext i32 %0 to i64
  %and = and i64 %conv, 1
  %tobool = icmp ne i64 %and, 0
  ret i1 %tobool
}

; Function Attrs: mustprogress uwtable
define linkonce_odr hidden noundef ptr @_ZNK5arith3sls4atomEj(ptr noundef nonnull align 8 dereferenceable(97) %this, i32 noundef %bv) #5 comdat align 2 {
entry:
  %this.addr = alloca ptr, align 8
  %bv.addr = alloca i32, align 4
  store ptr %this, ptr %this.addr, align 8
  store i32 %bv, ptr %bv.addr, align 4
  %this1 = load ptr, ptr %this.addr, align 8
  %m_bool_vars = getelementptr inbounds %"class.arith::sls", ptr %this1, i32 0, i32 7
  %0 = load i32, ptr %bv.addr, align 4
  %call = call noundef ptr @_ZNK17scoped_ptr_vectorIN5arith3sls4ineqEEixEj(ptr noundef nonnull align 8 dereferenceable(8) %m_bool_vars, i32 noundef %0)
  ret ptr %call
}

; Function Attrs: mustprogress nounwind uwtable
define linkonce_odr hidden noundef i32 @_ZNK3sat7literal3varEv(ptr noundef nonnull align 4 dereferenceable(4) %this) #4 comdat align 2 {
entry:
  %this.addr = alloca ptr, align 8
  store ptr %this, ptr %this.addr, align 8
  %this1 = load ptr, ptr %this.addr, align 8
  %m_val = getelementptr inbounds %"class.sat::literal", ptr %this1, i32 0, i32 0
  %0 = load i32, ptr %m_val, align 4
  %shr = lshr i32 %0, 1
  ret i32 %shr
}

; Function Attrs: mustprogress nounwind uwtable
define linkonce_odr hidden noundef ptr @_ZNK3sat6clause3endEv(ptr noundef nonnull align 4 dereferenceable(20) %this) #4 comdat align 2 {
entry:
  %this.addr = alloca ptr, align 8
  store ptr %this, ptr %this.addr, align 8
  %this1 = load ptr, ptr %this.addr, align 8
  %m_lits = getelementptr inbounds %"class.sat::clause", ptr %this1, i32 0, i32 5
  %arraydecay = getelementptr inbounds [0 x %"class.sat::literal"], ptr %m_lits, i64 0, i64 0
  %m_size = getelementptr inbounds %"class.sat::clause", ptr %this1, i32 0, i32 1
  %0 = load i32, ptr %m_size, align 4
  %idx.ext = zext i32 %0 to i64
  %add.ptr = getelementptr inbounds %"class.sat::literal", ptr %arraydecay, i64 %idx.ext
  ret ptr %add.ptr
}

; Function Attrs: mustprogress nounwind uwtable
define linkonce_odr hidden noundef ptr @_ZNK3sat6clause5beginEv(ptr noundef nonnull align 4 dereferenceable(20) %this) #4 comdat align 2 {
entry:
  %this.addr = alloca ptr, align 8
  store ptr %this, ptr %this.addr, align 8
  %this1 = load ptr, ptr %this.addr, align 8
  %m_lits = getelementptr inbounds %"class.sat::clause", ptr %this1, i32 0, i32 5
  %arraydecay = getelementptr inbounds [0 x %"class.sat::literal"], ptr %m_lits, i64 0, i64 0
  ret ptr %arraydecay
}

; Function Attrs: mustprogress uwtable
define linkonce_odr hidden noundef nonnull align 4 dereferenceable(20) ptr @_ZNK5arith3sls10get_clauseEj(ptr noundef nonnull align 8 dereferenceable(97) %this, i32 noundef %idx) #5 comdat align 2 {
entry:
  %this.addr = alloca ptr, align 8
  %idx.addr = alloca i32, align 4
  store ptr %this, ptr %this.addr, align 8
  store i32 %idx, ptr %idx.addr, align 4
  %this1 = load ptr, ptr %this.addr, align 8
  %0 = load i32, ptr %idx.addr, align 4
  %call = call noundef nonnull align 8 dereferenceable(24) ptr @_ZNK5arith3sls15get_clause_infoEj(ptr noundef nonnull align 8 dereferenceable(97) %this1, i32 noundef %0)
  %m_clause = getelementptr inbounds %"struct.sat::ddfw::clause_info", ptr %call, i32 0, i32 3
  %1 = load ptr, ptr %m_clause, align 8
  ret ptr %1
}

; Function Attrs: mustprogress uwtable
define hidden noundef i64 @_ZNK5arith3sls3dtsEjjl(ptr noundef nonnull align 8 dereferenceable(97) %this, i32 noundef %cl, i32 noundef %v, i64 noundef %new_value) #5 align 2 {
entry:
  %this.addr = alloca ptr, align 8
  %cl.addr = alloca i32, align 4
  %v.addr = alloca i32, align 4
  %new_value.addr = alloca i64, align 8
  %d = alloca i64, align 8
  %d2 = alloca i64, align 8
  %first = alloca i8, align 1
  %__range1 = alloca ptr, align 8
  %__begin1 = alloca ptr, align 8
  %__end1 = alloca ptr, align 8
  %lit = alloca %"class.sat::literal", align 4
  %ineq = alloca ptr, align 8
  store ptr %this, ptr %this.addr, align 8
  store i32 %cl, ptr %cl.addr, align 4
  store i32 %v, ptr %v.addr, align 4
  store i64 %new_value, ptr %new_value.addr, align 8
  %this1 = load ptr, ptr %this.addr, align 8
  store i64 1, ptr %d, align 8
  store i8 1, ptr %first, align 1
  %0 = load i32, ptr %cl.addr, align 4
  %call = call noundef nonnull align 4 dereferenceable(20) ptr @_ZNK5arith3sls10get_clauseEj(ptr noundef nonnull align 8 dereferenceable(97) %this1, i32 noundef %0)
  store ptr %call, ptr %__range1, align 8
  %1 = load ptr, ptr %__range1, align 8
  %call2 = call noundef ptr @_ZNK3sat6clause5beginEv(ptr noundef nonnull align 4 dereferenceable(20) %1)
  store ptr %call2, ptr %__begin1, align 8
  %2 = load ptr, ptr %__range1, align 8
  %call3 = call noundef ptr @_ZNK3sat6clause3endEv(ptr noundef nonnull align 4 dereferenceable(20) %2)
  store ptr %call3, ptr %__end1, align 8
  br label %for.cond

for.cond:                                         ; preds = %for.inc, %entry
  %3 = load ptr, ptr %__begin1, align 8
  %4 = load ptr, ptr %__end1, align 8
  %cmp = icmp ne ptr %3, %4
  br i1 %cmp, label %for.body, label %for.end

for.body:                                         ; preds = %for.cond
  %5 = load ptr, ptr %__begin1, align 8
  call void @llvm.memcpy.p0.p0.i64(ptr align 4 %lit, ptr align 4 %5, i64 4, i1 false)
  %call4 = call noundef i32 @_ZNK3sat7literal3varEv(ptr noundef nonnull align 4 dereferenceable(4) %lit)
  %call5 = call noundef ptr @_ZNK5arith3sls4atomEj(ptr noundef nonnull align 8 dereferenceable(97) %this1, i32 noundef %call4)
  store ptr %call5, ptr %ineq, align 8
  %6 = load ptr, ptr %ineq, align 8
  %tobool = icmp ne ptr %6, null
  br i1 %tobool, label %if.end, label %if.then

if.then:                                          ; preds = %for.body
  br label %for.inc

if.end:                                           ; preds = %for.body
  %call6 = call noundef zeroext i1 @_ZNK3sat7literal4signEv(ptr noundef nonnull align 4 dereferenceable(4) %lit)
  %7 = load ptr, ptr %ineq, align 8
  %8 = load i32, ptr %v.addr, align 4
  %9 = load i64, ptr %new_value.addr, align 8
  %call7 = call noundef i64 @_ZNK5arith3sls3dttEbRKNS0_4ineqEjl(ptr noundef nonnull align 8 dereferenceable(97) %this1, i1 noundef zeroext %call6, ptr noundef nonnull align 8 dereferenceable(36) %7, i32 noundef %8, i64 noundef %9)
  store i64 %call7, ptr %d2, align 8
  %10 = load i8, ptr %first, align 1
  %tobool8 = trunc i8 %10 to i1
  br i1 %tobool8, label %if.then9, label %if.else

if.then9:                                         ; preds = %if.end
  %11 = load i64, ptr %d2, align 8
  store i64 %11, ptr %d, align 8
  store i8 0, ptr %first, align 1
  br label %if.end11

if.else:                                          ; preds = %if.end
  %call10 = call noundef nonnull align 8 dereferenceable(8) ptr @_ZSt3minIlERKT_S2_S2_(ptr noundef nonnull align 8 dereferenceable(8) %d, ptr noundef nonnull align 8 dereferenceable(8) %d2)
  %12 = load i64, ptr %call10, align 8
  store i64 %12, ptr %d, align 8
  br label %if.end11

if.end11:                                         ; preds = %if.else, %if.then9
  %13 = load i64, ptr %d, align 8
  %cmp12 = icmp eq i64 %13, 0
  br i1 %cmp12, label %if.then13, label %if.end14

if.then13:                                        ; preds = %if.end11
  br label %for.end

if.end14:                                         ; preds = %if.end11
  br label %for.inc

for.inc:                                          ; preds = %if.end14, %if.then
  %14 = load ptr, ptr %__begin1, align 8
  %incdec.ptr = getelementptr inbounds %"class.sat::literal", ptr %14, i32 1
  store ptr %incdec.ptr, ptr %__begin1, align 8
  br label %for.cond

for.end:                                          ; preds = %if.then13, %for.cond
  %15 = load i64, ptr %d, align 8
  ret i64 %15
}