; Function Attrs: mustprogress uwtable
define hidden noundef i64 @_ZNK5arith3sls3dtsEjjl(ptr nocapture noundef nonnull readonly align 8 dereferenceable(97) %this, i32 noundef %cl, i32 noundef %v, i64 noundef %new_value) local_unnamed_addr #5 align 2 {
entry:
  %m_bool_search.i.i = getelementptr inbounds i8, ptr %this, i64 24
  %0 = load ptr, ptr %m_bool_search.i.i, align 8
  %m_clauses.i.i.i = getelementptr inbounds i8, ptr %0, i64 648
  %1 = load ptr, ptr %m_clauses.i.i.i, align 8
  %idxprom.i.i.i.i = zext i32 %cl to i64
  %m_clause.i = getelementptr inbounds %"struct.sat::ddfw::clause_info", ptr %1, i64 %idxprom.i.i.i.i, i32 3
  %2 = load ptr, ptr %m_clause.i, align 8
  %m_size.i = getelementptr inbounds i8, ptr %2, i64 4
  %3 = load i32, ptr %m_size.i, align 4
  %idx.ext.i = zext i32 %3 to i64
  %add.ptr.i.idx = shl nuw nsw i64 %idx.ext.i, 2
  %4 = getelementptr i8, ptr %2, i64 %add.ptr.i.idx
  %add.ptr.i.ptr = getelementptr i8, ptr %4, i64 20
  %cmp.not10 = icmp eq i32 %3, 0
  br i1 %cmp.not10, label %for.end, label %for.body.lr.ph

for.body.lr.ph:                                   ; preds = %entry
  %m_lits.i.ptr = getelementptr inbounds i8, ptr %2, i64 20
  %m_bool_vars.i = getelementptr inbounds i8, ptr %this, i64 72
  br label %for.body

for.body:                                         ; preds = %for.body.lr.ph, %for.inc
  %first.013 = phi i8 [ 1, %for.body.lr.ph ], [ %first.2, %for.inc ]
  %__begin1.012 = phi ptr [ %m_lits.i.ptr, %for.body.lr.ph ], [ %incdec.ptr, %for.inc ]
  %d.011 = phi i64 [ 1, %for.body.lr.ph ], [ %d.1, %for.inc ]
  %5 = load i32, ptr %__begin1.012, align 4
  %shr.i = lshr i32 %5, 1
  %6 = load ptr, ptr %m_bool_vars.i, align 8
  %idxprom.i.i.i = zext nneg i32 %shr.i to i64
  %arrayidx.i.i.i = getelementptr inbounds ptr, ptr %6, i64 %idxprom.i.i.i
  %7 = load ptr, ptr %arrayidx.i.i.i, align 8
  %tobool.not = icmp eq ptr %7, null
  br i1 %tobool.not, label %for.inc, label %if.end

if.end:                                           ; preds = %for.body
  %8 = and i32 %5, 1
  %tobool.i = icmp ne i32 %8, 0
  %call7 = tail call noundef i64 @_ZNK5arith3sls3dttEbRKNS0_4ineqEjl(ptr noundef nonnull align 8 dereferenceable(97) %this, i1 noundef zeroext %tobool.i, ptr noundef nonnull align 8 dereferenceable(36) %7, i32 noundef %v, i64 noundef %new_value)
  %9 = and i8 %first.013, 1
  %tobool8.not = icmp eq i8 %9, 0
  %.sroa.speculated = tail call i64 @llvm.smin.i64(i64 %call7, i64 %d.011)
  %storemerge = select i1 %tobool8.not, i64 %.sroa.speculated, i64 %call7
  %first.1 = select i1 %tobool8.not, i8 %first.013, i8 0
  %cmp12 = icmp eq i64 %storemerge, 0
  br i1 %cmp12, label %for.end, label %for.inc

for.inc:                                          ; preds = %if.end, %for.body
  %d.1 = phi i64 [ %d.011, %for.body ], [ %storemerge, %if.end ]
  %first.2 = phi i8 [ %first.013, %for.body ], [ %first.1, %if.end ]
  %incdec.ptr = getelementptr inbounds i8, ptr %__begin1.012, i64 4
  %cmp.not = icmp eq ptr %incdec.ptr, %add.ptr.i.ptr
  br i1 %cmp.not, label %for.end, label %for.body

for.end:                                          ; preds = %for.inc, %if.end, %entry
  %d.2 = phi i64 [ 1, %entry ], [ 0, %if.end ], [ %d.1, %for.inc ]
  ret i64 %d.2
}